target datalayout = "e-m:e-p270:32:32-p271:32:32-p272:64:64-i64:64-i128:128-f80:128-n8:16:32:64-S128"
target triple = "x86_64-pc-linux-gnu"

%class.TransTableL = type { %class.TransTable, i32, i32, i32, i32, i32, i32, %"struct.TransTableL::pageStatsType", [8192 x %"struct.TransTableL::aggrType"], [12 x [4 x ptr]], [12 x [4 x ptr]], ptr, ptr, %"struct.TransTableL::harvestedType", i32, i32 }
%class.TransTable = type { ptr }
%"struct.TransTableL::pageStatsType" = type { i32, i32, i32, i32, i32 }
%"struct.TransTableL::aggrType" = type { [4 x i32], [4 x [4 x i32]] }
%"struct.TransTableL::harvestedType" = type { i32, [1000 x ptr] }
%"struct.TransTableL::poolType" = type { ptr, ptr, i32, ptr }
%"struct.TransTableL::distHashType" = type { i32, i32, [32 x %"struct.TransTableL::posSearchType"] }
%"struct.TransTableL::posSearchType" = type { ptr, i64 }

; Function Attrs: mustprogress nounwind uwtable
define void @_ZN11TransTableL6InitTTEv(ptr noundef nonnull align 8 dereferenceable(664216) %0) #5 align 2 {
  %2 = alloca ptr, align 8
  %3 = alloca i32, align 4
  %4 = alloca i32, align 4
  %5 = alloca i32, align 4
  store ptr %0, ptr %2, align 8
  %6 = load ptr, ptr %2, align 8
  store i32 0, ptr %3, align 4
  br label %7

7:                                                ; preds = %58, %1
  %8 = load i32, ptr %3, align 4
  %9 = icmp slt i32 %8, 12
  br i1 %9, label %10, label %61

10:                                               ; preds = %7
  store i32 0, ptr %4, align 4
  br label %11

11:                                               ; preds = %54, %10
  %12 = load i32, ptr %4, align 4
  %13 = icmp slt i32 %12, 4
  br i1 %13, label %14, label %57

14:                                               ; preds = %11
  store i32 0, ptr %5, align 4
  br label %15

15:                                               ; preds = %43, %14
  %16 = load i32, ptr %5, align 4
  %17 = icmp slt i32 %16, 256
  br i1 %17, label %18, label %46

18:                                               ; preds = %15
  %19 = getelementptr inbounds nuw %class.TransTableL, ptr %6, i32 0, i32 9
  %20 = load i32, ptr %3, align 4
  %21 = sext i32 %20 to i64
  %22 = getelementptr inbounds [12 x [4 x ptr]], ptr %19, i64 0, i64 %21
  %23 = load i32, ptr %4, align 4
  %24 = sext i32 %23 to i64
  %25 = getelementptr inbounds [4 x ptr], ptr %22, i64 0, i64 %24
  %26 = load ptr, ptr %25, align 8
  %27 = load i32, ptr %5, align 4
  %28 = sext i32 %27 to i64
  %29 = getelementptr inbounds %"struct.TransTableL::distHashType", ptr %26, i64 %28
  %30 = getelementptr inbounds nuw %"struct.TransTableL::distHashType", ptr %29, i32 0, i32 0
  store i32 0, ptr %30, align 8
  %31 = getelementptr inbounds nuw %class.TransTableL, ptr %6, i32 0, i32 9
  %32 = load i32, ptr %3, align 4
  %33 = sext i32 %32 to i64
  %34 = getelementptr inbounds [12 x [4 x ptr]], ptr %31, i64 0, i64 %33
  %35 = load i32, ptr %4, align 4
  %36 = sext i32 %35 to i64
  %37 = getelementptr inbounds [4 x ptr], ptr %34, i64 0, i64 %36
  %38 = load ptr, ptr %37, align 8
  %39 = load i32, ptr %5, align 4
  %40 = sext i32 %39 to i64
  %41 = getelementptr inbounds %"struct.TransTableL::distHashType", ptr %38, i64 %40
  %42 = getelementptr inbounds nuw %"struct.TransTableL::distHashType", ptr %41, i32 0, i32 1
  store i32 0, ptr %42, align 4
  br label %43

43:                                               ; preds = %18
  %44 = load i32, ptr %5, align 4
  %45 = add nsw i32 %44, 1
  store i32 %45, ptr %5, align 4
  br label %15, !llvm.loop !13

46:                                               ; preds = %15
  %47 = getelementptr inbounds nuw %class.TransTableL, ptr %6, i32 0, i32 10
  %48 = load i32, ptr %3, align 4
  %49 = sext i32 %48 to i64
  %50 = getelementptr inbounds [12 x [4 x ptr]], ptr %47, i64 0, i64 %49
  %51 = load i32, ptr %4, align 4
  %52 = sext i32 %51 to i64
  %53 = getelementptr inbounds [4 x ptr], ptr %50, i64 0, i64 %52
  store ptr null, ptr %53, align 8
  br label %54

54:                                               ; preds = %46
  %55 = load i32, ptr %4, align 4
  %56 = add nsw i32 %55, 1
  store i32 %56, ptr %4, align 4
  br label %11, !llvm.loop !14

57:                                               ; preds = %11
  br label %58

58:                                               ; preds = %57
  %59 = load i32, ptr %3, align 4
  %60 = add nsw i32 %59, 1
  store i32 %60, ptr %3, align 4
  br label %7, !llvm.loop !15

61:                                               ; preds = %7
  ret void
}

; Function Attrs: mustprogress nounwind uwtable
define void @_ZN11TransTableL11ResetMemoryE13TTresetReason(ptr noundef nonnull align 8 dereferenceable(664216) %0, i32 noundef %1) unnamed_addr #5 align 2 {
  %3 = alloca ptr, align 8
  %4 = alloca i32, align 4
  store ptr %0, ptr %3, align 8
  store i32 %1, ptr %4, align 4
  %5 = load ptr, ptr %3, align 8
  %6 = getelementptr inbounds nuw %class.TransTableL, ptr %5, i32 0, i32 11
  %7 = load ptr, ptr %6, align 8
  %8 = icmp eq ptr %7, null
  br i1 %8, label %9, label %10

9:                                                ; preds = %2
  br label %93

10:                                               ; preds = %2
  %11 = getelementptr inbounds nuw %class.TransTableL, ptr %5, i32 0, i32 7
  %12 = getelementptr inbounds nuw %"struct.TransTableL::pageStatsType", ptr %11, i32 0, i32 0
  %13 = load i32, ptr %12, align 8
  %14 = add nsw i32 %13, 1
  store i32 %14, ptr %12, align 8
  %15 = getelementptr inbounds nuw %class.TransTableL, ptr %5, i32 0, i32 3
  %16 = load i32, ptr %15, align 8
  %17 = getelementptr inbounds nuw %class.TransTableL, ptr %5, i32 0, i32 7
  %18 = getelementptr inbounds nuw %"struct.TransTableL::pageStatsType", ptr %17, i32 0, i32 4
  %19 = load i32, ptr %18, align 8
  %20 = sub nsw i32 %16, %19
  %21 = getelementptr inbounds nuw %class.TransTableL, ptr %5, i32 0, i32 7
  %22 = getelementptr inbounds nuw %"struct.TransTableL::pageStatsType", ptr %21, i32 0, i32 1
  %23 = load i32, ptr %22, align 4
  %24 = add nsw i32 %23, %20
  store i32 %24, ptr %22, align 4
  %25 = getelementptr inbounds nuw %class.TransTableL, ptr %5, i32 0, i32 3
  %26 = load i32, ptr %25, align 8
  %27 = getelementptr inbounds nuw %class.TransTableL, ptr %5, i32 0, i32 7
  %28 = getelementptr inbounds nuw %"struct.TransTableL::pageStatsType", ptr %27, i32 0, i32 4
  store i32 %26, ptr %28, align 8
  br label %29

29:                                               ; preds = %35, %10
  %30 = getelementptr inbounds nuw %class.TransTableL, ptr %5, i32 0, i32 3
  %31 = load i32, ptr %30, align 8
  %32 = getelementptr inbounds nuw %class.TransTableL, ptr %5, i32 0, i32 2
  %33 = load i32, ptr %32, align 4
  %34 = icmp sgt i32 %31, %33
  br i1 %34, label %35, label %55

35:                                               ; preds = %29
  %36 = getelementptr inbounds nuw %class.TransTableL, ptr %5, i32 0, i32 11
  %37 = load ptr, ptr %36, align 8
  %38 = getelementptr inbounds nuw %"struct.TransTableL::poolType", ptr %37, i32 0, i32 3
  %39 = load ptr, ptr %38, align 8
  call void @free(ptr noundef %39) #3
  %40 = getelementptr inbounds nuw %class.TransTableL, ptr %5, i32 0, i32 11
  %41 = load ptr, ptr %40, align 8
  %42 = getelementptr inbounds nuw %"struct.TransTableL::poolType", ptr %41, i32 0, i32 1
  %43 = load ptr, ptr %42, align 8
  %44 = getelementptr inbounds nuw %class.TransTableL, ptr %5, i32 0, i32 11
  store ptr %43, ptr %44, align 8
  %45 = getelementptr inbounds nuw %class.TransTableL, ptr %5, i32 0, i32 11
  %46 = load ptr, ptr %45, align 8
  %47 = getelementptr inbounds nuw %"struct.TransTableL::poolType", ptr %46, i32 0, i32 0
  %48 = load ptr, ptr %47, align 8
  call void @free(ptr noundef %48) #3
  %49 = getelementptr inbounds nuw %class.TransTableL, ptr %5, i32 0, i32 11
  %50 = load ptr, ptr %49, align 8
  %51 = getelementptr inbounds nuw %"struct.TransTableL::poolType", ptr %50, i32 0, i32 0
  store ptr null, ptr %51, align 8
  %52 = getelementptr inbounds nuw %class.TransTableL, ptr %5, i32 0, i32 3
  %53 = load i32, ptr %52, align 8
  %54 = add nsw i32 %53, -1
  store i32 %54, ptr %52, align 8
  br label %29, !llvm.loop !18

55:                                               ; preds = %29
  %56 = getelementptr inbounds nuw %class.TransTableL, ptr %5, i32 0, i32 7
  %57 = getelementptr inbounds nuw %"struct.TransTableL::pageStatsType", ptr %56, i32 0, i32 4
  %58 = load i32, ptr %57, align 8
  %59 = getelementptr inbounds nuw %class.TransTableL, ptr %5, i32 0, i32 3
  %60 = load i32, ptr %59, align 8
  %61 = sub nsw i32 %58, %60
  %62 = getelementptr inbounds nuw %class.TransTableL, ptr %5, i32 0, i32 7
  %63 = getelementptr inbounds nuw %"struct.TransTableL::pageStatsType", ptr %62, i32 0, i32 2
  %64 = load i32, ptr %63, align 8
  %65 = add nsw i32 %64, %61
  store i32 %65, ptr %63, align 8
  %66 = getelementptr inbounds nuw %class.TransTableL, ptr %5, i32 0, i32 3
  %67 = load i32, ptr %66, align 8
  %68 = getelementptr inbounds nuw %class.TransTableL, ptr %5, i32 0, i32 7
  %69 = getelementptr inbounds nuw %"struct.TransTableL::pageStatsType", ptr %68, i32 0, i32 4
  store i32 %67, ptr %69, align 8
  br label %70

70:                                               ; preds = %76, %55
  %71 = getelementptr inbounds nuw %class.TransTableL, ptr %5, i32 0, i32 11
  %72 = load ptr, ptr %71, align 8
  %73 = getelementptr inbounds nuw %"struct.TransTableL::poolType", ptr %72, i32 0, i32 1
  %74 = load ptr, ptr %73, align 8
  %75 = icmp ne ptr %74, null
  br i1 %75, label %76, label %82

76:                                               ; preds = %70
  %77 = getelementptr inbounds nuw %class.TransTableL, ptr %5, i32 0, i32 11
  %78 = load ptr, ptr %77, align 8
  %79 = getelementptr inbounds nuw %"struct.TransTableL::poolType", ptr %78, i32 0, i32 1
  %80 = load ptr, ptr %79, align 8
  %81 = getelementptr inbounds nuw %class.TransTableL, ptr %5, i32 0, i32 11
  store ptr %80, ptr %81, align 8
  br label %70, !llvm.loop !19

82:                                               ; preds = %70
  %83 = getelementptr inbounds nuw %class.TransTableL, ptr %5, i32 0, i32 11
  %84 = load ptr, ptr %83, align 8
  %85 = getelementptr inbounds nuw %"struct.TransTableL::poolType", ptr %84, i32 0, i32 2
  store i32 0, ptr %85, align 8
  %86 = getelementptr inbounds nuw %class.TransTableL, ptr %5, i32 0, i32 11
  %87 = load ptr, ptr %86, align 8
  %88 = getelementptr inbounds nuw %"struct.TransTableL::poolType", ptr %87, i32 0, i32 3
  %89 = load ptr, ptr %88, align 8
  %90 = getelementptr inbounds nuw %class.TransTableL, ptr %5, i32 0, i32 12
  store ptr %89, ptr %90, align 8
  call void @_ZN11TransTableL6InitTTEv(ptr noundef nonnull align 8 dereferenceable(664216) %5)
  %91 = getelementptr inbounds nuw %class.TransTableL, ptr %5, i32 0, i32 14
  store i32 0, ptr %91, align 8
  %92 = getelementptr inbounds nuw %class.TransTableL, ptr %5, i32 0, i32 1
  store i32 0, ptr %92, align 8
  br label %93

93:                                               ; preds = %82, %9
  ret void
}