; Function Attrs: mustprogress nounwind uwtable
define void @_ZN11TransTableL11ResetMemoryE13TTresetReason(ptr nocapture noundef nonnull align 8 dereferenceable(664216) %0, i32 %1) unnamed_addr #3 align 2 {
  %3 = getelementptr inbounds nuw i8, ptr %0, i64 656184
  %4 = load ptr, ptr %3, align 8
  %5 = icmp eq ptr %4, null
  br i1 %5, label %61, label %6

6:                                                ; preds = %2
  %7 = getelementptr inbounds nuw i8, ptr %0, i64 32
  %8 = load i32, ptr %7, align 8
  %9 = add nsw i32 %8, 1
  store i32 %9, ptr %7, align 8
  %10 = getelementptr inbounds nuw i8, ptr %0, i64 16
  %11 = load i32, ptr %10, align 8
  %12 = getelementptr inbounds i8, ptr %0, i64 48
  %13 = load i32, ptr %12, align 8
  %14 = sub i32 %11, %13
  %15 = getelementptr inbounds i8, ptr %0, i64 36
  %16 = load i32, ptr %15, align 4
  %17 = add nsw i32 %14, %16
  store i32 %17, ptr %15, align 4
  store i32 %11, ptr %12, align 8
  %18 = getelementptr inbounds nuw i8, ptr %0, i64 12
  %19 = load i32, ptr %18, align 4
  %20 = icmp sgt i32 %11, %19
  br i1 %20, label %.lr.ph, label %._crit_edge

.lr.ph:                                           ; preds = %6, %.lr.ph
  %21 = load ptr, ptr %3, align 8
  %22 = getelementptr inbounds nuw i8, ptr %21, i64 24
  %23 = load ptr, ptr %22, align 8
  tail call void @free(ptr noundef %23) #32
  %24 = load ptr, ptr %3, align 8
  %25 = getelementptr inbounds nuw i8, ptr %24, i64 8
  %26 = load ptr, ptr %25, align 8
  store ptr %26, ptr %3, align 8
  %27 = load ptr, ptr %26, align 8
  tail call void @free(ptr noundef %27) #32
  %28 = load ptr, ptr %3, align 8
  store ptr null, ptr %28, align 8
  %29 = load i32, ptr %10, align 8
  %30 = add nsw i32 %29, -1
  store i32 %30, ptr %10, align 8
  %31 = load i32, ptr %18, align 4
  %32 = icmp sgt i32 %30, %31
  br i1 %32, label %.lr.ph, label %._crit_edge.loopexit, !llvm.loop !18

._crit_edge.loopexit:                             ; preds = %.lr.ph
  %.pre = load i32, ptr %12, align 8
  %.promoted.pre = load ptr, ptr %3, align 8
  br label %._crit_edge

._crit_edge:                                      ; preds = %._crit_edge.loopexit, %6
  %.promoted = phi ptr [ %4, %6 ], [ %.promoted.pre, %._crit_edge.loopexit ]
  %33 = phi i32 [ %11, %6 ], [ %.pre, %._crit_edge.loopexit ]
  %.lcssa3 = phi i32 [ %11, %6 ], [ %30, %._crit_edge.loopexit ]
  %34 = sub i32 %33, %.lcssa3
  %35 = getelementptr inbounds i8, ptr %0, i64 40
  %36 = load i32, ptr %35, align 8
  %37 = add nsw i32 %34, %36
  store i32 %37, ptr %35, align 8
  store i32 %.lcssa3, ptr %12, align 8
  %38 = getelementptr inbounds nuw i8, ptr %.promoted, i64 8
  %39 = load ptr, ptr %38, align 8
  %.not4 = icmp eq ptr %39, null
  br i1 %.not4, label %._crit_edge7, label %.lr.ph6

.lr.ph6:                                          ; preds = %._crit_edge, %.lr.ph6
  %40 = phi ptr [ %42, %.lr.ph6 ], [ %39, %._crit_edge ]
  store ptr %40, ptr %3, align 8
  %41 = getelementptr inbounds nuw i8, ptr %40, i64 8
  %42 = load ptr, ptr %41, align 8
  %.not = icmp eq ptr %42, null
  br i1 %.not, label %._crit_edge7, label %.lr.ph6, !llvm.loop !19

._crit_edge7:                                     ; preds = %.lr.ph6, %._crit_edge
  %.lcssa = phi ptr [ %.promoted, %._crit_edge ], [ %40, %.lr.ph6 ]
  %43 = getelementptr inbounds nuw i8, ptr %.lcssa, i64 16
  store i32 0, ptr %43, align 8
  %44 = load ptr, ptr %3, align 8
  %45 = getelementptr inbounds nuw i8, ptr %44, i64 24
  %46 = load ptr, ptr %45, align 8
  %47 = getelementptr inbounds nuw i8, ptr %0, i64 656192
  store ptr %46, ptr %47, align 8
  %48 = getelementptr inbounds nuw i8, ptr %0, i64 655416
  %49 = getelementptr inbounds nuw i8, ptr %0, i64 655800
  br label %.preheader16.i

.preheader16.i:                                   ; preds = %58, %._crit_edge7
  %indvars.iv25.i = phi i64 [ 0, %._crit_edge7 ], [ %indvars.iv.next26.i, %58 ]
  br label %.preheader.i

.preheader.i:                                     ; preds = %56, %.preheader16.i
  %indvars.iv21.i = phi i64 [ 0, %.preheader16.i ], [ %indvars.iv.next22.i, %56 ]
  %50 = getelementptr inbounds [12 x [4 x ptr]], ptr %48, i64 0, i64 %indvars.iv25.i, i64 %indvars.iv21.i
  br label %51

51:                                               ; preds = %51, %.preheader.i
  %indvars.iv.i = phi i64 [ 0, %.preheader.i ], [ %indvars.iv.next.i, %51 ]
  %52 = load ptr, ptr %50, align 8
  %53 = getelementptr inbounds %"struct.TransTableL::distHashType", ptr %52, i64 %indvars.iv.i
  store i32 0, ptr %53, align 8
  %54 = load ptr, ptr %50, align 8
  %55 = getelementptr inbounds %"struct.TransTableL::distHashType", ptr %54, i64 %indvars.iv.i, i32 1
  store i32 0, ptr %55, align 4
  %indvars.iv.next.i = add nuw nsw i64 %indvars.iv.i, 1
  %exitcond.not.i = icmp eq i64 %indvars.iv.next.i, 256
  br i1 %exitcond.not.i, label %56, label %51, !llvm.loop !15

56:                                               ; preds = %51
  %57 = getelementptr inbounds [12 x [4 x ptr]], ptr %49, i64 0, i64 %indvars.iv25.i, i64 %indvars.iv21.i
  store ptr null, ptr %57, align 8
  %indvars.iv.next22.i = add nuw nsw i64 %indvars.iv21.i, 1
  %exitcond24.not.i = icmp eq i64 %indvars.iv.next22.i, 4
  br i1 %exitcond24.not.i, label %58, label %.preheader.i, !llvm.loop !16

58:                                               ; preds = %56
  %indvars.iv.next26.i = add nuw nsw i64 %indvars.iv25.i, 1
  %exitcond28.not.i = icmp eq i64 %indvars.iv.next26.i, 12
  br i1 %exitcond28.not.i, label %_ZN11TransTableL6InitTTEv.exit, label %.preheader16.i, !llvm.loop !17

_ZN11TransTableL6InitTTEv.exit:                   ; preds = %58
  %59 = getelementptr inbounds nuw i8, ptr %0, i64 664208
  store i32 0, ptr %59, align 8
  %60 = getelementptr inbounds nuw i8, ptr %0, i64 8
  store i32 0, ptr %60, align 8
  br label %61

61:                                               ; preds = %2, %_ZN11TransTableL6InitTTEv.exit
  ret void
}